target datalayout = "e-m:e-p270:32:32-p271:32:32-p272:64:64-i64:64-i128:128-f80:128-n8:16:32:64-S128"
target triple = "x86_64-pc-linux-gnu"

@.str.318 = private unnamed_addr constant [4 x i8] c"NTP\00", align 1
@.str.612 = private unnamed_addr constant [22 x i8] c"Network Time Protocol\00", align 1
@.str.613 = private unnamed_addr constant [4 x i8] c"ntp\00", align 1
@proto_ntp = internal global i32 0, align 4
@ntp_handle = internal global ptr null, align 8
@.str.974 = private unnamed_addr constant [2 x i8] c",\00", align 1
@want_ignore = internal global ptr null, align 8
@want = internal global ptr null, align 8
@.str.995 = private unnamed_addr constant [66 x i8] c"abcdefghijklmnopqrstuvwxyz-_ABCDEFGHIJKLMNOPQRSTUVWXYZ.0123456789\00", align 1
@.str.996 = private unnamed_addr constant [2 x i8] c"=\00", align 1
@.str.997 = private unnamed_addr constant [67 x i8] c"abcdefghijklmnopqrstuvwxyz-_ABCDEFGHIJKLMNOPQRSTUVWXYZ.0123456789 \00", align 1
@.str.998 = private unnamed_addr constant [5 x i8] c" \09\0D\0A\00", align 1

; Function Attrs: null_pointer_is_valid sspstrong uwtable
define internal void @init_parser() #0 {
  %1 = alloca ptr, align 8
  %2 = alloca ptr, align 8
  %3 = alloca ptr, align 8
  %4 = alloca ptr, align 8
  %5 = alloca ptr, align 8
  %6 = alloca ptr, align 8
  call void @llvm.lifetime.start.p0(i64 8, ptr %1) #10
  %7 = call ptr @tvbparse_chars(i32 noundef -1, i32 noundef 1, i32 noundef 0, ptr noundef @.str.995, ptr noundef null, ptr noundef null, ptr noundef null)
  store ptr %7, ptr %1, align 8
  call void @llvm.lifetime.start.p0(i64 8, ptr %2) #10
  %8 = call ptr @tvbparse_char(i32 noundef -1, ptr noundef @.str.996, ptr noundef null, ptr noundef null, ptr noundef null)
  store ptr %8, ptr %2, align 8
  call void @llvm.lifetime.start.p0(i64 8, ptr %3) #10
  %9 = call ptr @tvbparse_quoted(i32 noundef -1, ptr noundef null, ptr noundef null, ptr noundef @tvbparse_shrink_token_cb, i8 noundef signext 34, i8 noundef signext 92)
  %10 = call ptr @tvbparse_quoted(i32 noundef -1, ptr noundef null, ptr noundef null, ptr noundef @tvbparse_shrink_token_cb, i8 noundef signext 39, i8 noundef signext 92)
  %11 = call ptr @tvbparse_chars(i32 noundef -1, i32 noundef 1, i32 noundef 0, ptr noundef @.str.997, ptr noundef null, ptr noundef null, ptr noundef null)
  %12 = call ptr (i32, ptr, ptr, ptr, ...) @tvbparse_set_oneof(i32 noundef 0, ptr noundef null, ptr noundef null, ptr noundef null, ptr noundef %9, ptr noundef %10, ptr noundef %11, ptr noundef null)
  store ptr %12, ptr %3, align 8
  call void @llvm.lifetime.start.p0(i64 8, ptr %4) #10
  %13 = call ptr @tvbparse_char(i32 noundef -1, ptr noundef @.str.974, ptr noundef null, ptr noundef null, ptr noundef null)
  %14 = call ptr @tvbparse_until(i32 noundef -1, ptr noundef null, ptr noundef null, ptr noundef null, ptr noundef %13, i32 noundef 1)
  store ptr %14, ptr %4, align 8
  call void @llvm.lifetime.start.p0(i64 8, ptr %5) #10
  %15 = load ptr, ptr %1, align 8
  %16 = load ptr, ptr %4, align 8
  %17 = call ptr @tvbparse_some(i32 noundef -1, i32 noundef 0, i32 noundef 1, ptr noundef null, ptr noundef null, ptr noundef null, ptr noundef %16)
  %18 = call ptr (i32, ptr, ptr, ptr, ...) @tvbparse_set_seq(i32 noundef -1, ptr noundef null, ptr noundef null, ptr noundef null, ptr noundef %15, ptr noundef %17, ptr noundef null)
  store ptr %18, ptr %5, align 8
  call void @llvm.lifetime.start.p0(i64 8, ptr %6) #10
  %19 = load ptr, ptr %1, align 8
  %20 = load ptr, ptr %2, align 8
  %21 = load ptr, ptr %3, align 8
  %22 = call ptr @tvbparse_some(i32 noundef -1, i32 noundef 0, i32 noundef 1, ptr noundef null, ptr noundef null, ptr noundef null, ptr noundef %21)
  %23 = load ptr, ptr %4, align 8
  %24 = call ptr @tvbparse_some(i32 noundef -1, i32 noundef 0, i32 noundef 1, ptr noundef null, ptr noundef null, ptr noundef null, ptr noundef %23)
  %25 = call ptr (i32, ptr, ptr, ptr, ...) @tvbparse_set_seq(i32 noundef -1, ptr noundef null, ptr noundef null, ptr noundef null, ptr noundef %19, ptr noundef %20, ptr noundef %22, ptr noundef %24, ptr noundef null)
  store ptr %25, ptr %6, align 8
  %26 = call ptr @tvbparse_chars(i32 noundef -1, i32 noundef 1, i32 noundef 0, ptr noundef @.str.998, ptr noundef null, ptr noundef null, ptr noundef null)
  store ptr %26, ptr @want_ignore, align 8
  %27 = load ptr, ptr %6, align 8
  %28 = load ptr, ptr %5, align 8
  %29 = call ptr (i32, ptr, ptr, ptr, ...) @tvbparse_set_oneof(i32 noundef -1, ptr noundef null, ptr noundef null, ptr noundef null, ptr noundef %27, ptr noundef %28, ptr noundef null)
  store ptr %29, ptr @want, align 8
  call void @llvm.lifetime.end.p0(i64 8, ptr %6) #10
  call void @llvm.lifetime.end.p0(i64 8, ptr %5) #10
  call void @llvm.lifetime.end.p0(i64 8, ptr %4) #10
  call void @llvm.lifetime.end.p0(i64 8, ptr %3) #10
  call void @llvm.lifetime.end.p0(i64 8, ptr %2) #10
  call void @llvm.lifetime.end.p0(i64 8, ptr %1) #10
  ret void
}

; Function Attrs: null_pointer_is_valid sspstrong uwtable
define hidden void @proto_register_ntp() #0 {
  %1 = alloca ptr, align 8
  call void @llvm.lifetime.start.p0(i64 8, ptr %1) #10
  %2 = call i32 @proto_register_protocol(ptr noundef @.str.612, ptr noundef @.str.318, ptr noundef @.str.613)
  store i32 %2, ptr @proto_ntp, align 4
  %3 = load i32, ptr @proto_ntp, align 4
  call void @proto_register_field_array(i32 noundef %3, ptr noundef @proto_register_ntp.hf, i32 noundef 301)
  call void @proto_register_subtree_array(ptr noundef @proto_register_ntp.ett, i32 noundef 16)
  %4 = load i32, ptr @proto_ntp, align 4
  %5 = call ptr @expert_register_protocol(i32 noundef %4)
  store ptr %5, ptr %1, align 8
  %6 = load ptr, ptr %1, align 8
  call void @expert_register_field_array(ptr noundef %6, ptr noundef @proto_register_ntp.ei, i32 noundef 2)
  %7 = load i32, ptr @proto_ntp, align 4
  %8 = call ptr @register_dissector(ptr noundef @.str.613, ptr noundef @dissect_ntp, i32 noundef %7)
  store ptr %8, ptr @ntp_handle, align 8
  call void @init_parser()
  call void @llvm.lifetime.end.p0(i64 8, ptr %1) #10
  ret void
}