; Function Attrs: null_pointer_is_valid sspstrong uwtable
define hidden void @proto_register_ntp() local_unnamed_addr #0 {
  %1 = tail call i32 @proto_register_protocol(ptr noundef nonnull @.str.612, ptr noundef nonnull @.str.318, ptr noundef nonnull @.str.613)
  store i32 %1, ptr @proto_ntp, align 4
  tail call void @proto_register_field_array(i32 noundef %1, ptr noundef nonnull @proto_register_ntp.hf, i32 noundef 301)
  tail call void @proto_register_subtree_array(ptr noundef nonnull @proto_register_ntp.ett, i32 noundef 16)
  %2 = load i32, ptr @proto_ntp, align 4
  %3 = tail call ptr @expert_register_protocol(i32 noundef %2)
  tail call void @expert_register_field_array(ptr noundef %3, ptr noundef nonnull @proto_register_ntp.ei, i32 noundef 2)
  %4 = load i32, ptr @proto_ntp, align 4
  %5 = tail call ptr @register_dissector(ptr noundef nonnull @.str.613, ptr noundef nonnull @dissect_ntp, i32 noundef %4)
  store ptr %5, ptr @ntp_handle, align 8
  %6 = tail call ptr @tvbparse_chars(i32 noundef -1, i32 noundef 1, i32 noundef 0, ptr noundef nonnull @.str.995, ptr noundef null, ptr noundef null, ptr noundef null)
  %7 = tail call ptr @tvbparse_char(i32 noundef -1, ptr noundef nonnull @.str.996, ptr noundef null, ptr noundef null, ptr noundef null)
  %8 = tail call ptr @tvbparse_quoted(i32 noundef -1, ptr noundef null, ptr noundef null, ptr noundef nonnull @tvbparse_shrink_token_cb, i8 noundef signext 34, i8 noundef signext 92)
  %9 = tail call ptr @tvbparse_quoted(i32 noundef -1, ptr noundef null, ptr noundef null, ptr noundef nonnull @tvbparse_shrink_token_cb, i8 noundef signext 39, i8 noundef signext 92)
  %10 = tail call ptr @tvbparse_chars(i32 noundef -1, i32 noundef 1, i32 noundef 0, ptr noundef nonnull @.str.997, ptr noundef null, ptr noundef null, ptr noundef null)
  %11 = tail call ptr (i32, ptr, ptr, ptr, ...) @tvbparse_set_oneof(i32 noundef 0, ptr noundef null, ptr noundef null, ptr noundef null, ptr noundef %8, ptr noundef %9, ptr noundef %10, ptr noundef null)
  %12 = tail call ptr @tvbparse_char(i32 noundef -1, ptr noundef nonnull @.str.974, ptr noundef null, ptr noundef null, ptr noundef null)
  %13 = tail call ptr @tvbparse_until(i32 noundef -1, ptr noundef null, ptr noundef null, ptr noundef null, ptr noundef %12, i32 noundef 1)
  %14 = tail call ptr @tvbparse_some(i32 noundef -1, i32 noundef 0, i32 noundef 1, ptr noundef null, ptr noundef null, ptr noundef null, ptr noundef %13)
  %15 = tail call ptr (i32, ptr, ptr, ptr, ...) @tvbparse_set_seq(i32 noundef -1, ptr noundef null, ptr noundef null, ptr noundef null, ptr noundef %6, ptr noundef %14, ptr noundef null)
  %16 = tail call ptr @tvbparse_some(i32 noundef -1, i32 noundef 0, i32 noundef 1, ptr noundef null, ptr noundef null, ptr noundef null, ptr noundef %11)
  %17 = tail call ptr @tvbparse_some(i32 noundef -1, i32 noundef 0, i32 noundef 1, ptr noundef null, ptr noundef null, ptr noundef null, ptr noundef %13)
  %18 = tail call ptr (i32, ptr, ptr, ptr, ...) @tvbparse_set_seq(i32 noundef -1, ptr noundef null, ptr noundef null, ptr noundef null, ptr noundef %6, ptr noundef %7, ptr noundef %16, ptr noundef %17, ptr noundef null)
  %19 = tail call ptr @tvbparse_chars(i32 noundef -1, i32 noundef 1, i32 noundef 0, ptr noundef nonnull @.str.998, ptr noundef null, ptr noundef null, ptr noundef null)
  store ptr %19, ptr @want_ignore, align 8
  %20 = tail call ptr (i32, ptr, ptr, ptr, ...) @tvbparse_set_oneof(i32 noundef -1, ptr noundef null, ptr noundef null, ptr noundef null, ptr noundef %18, ptr noundef %15, ptr noundef null)
  store ptr %20, ptr @want, align 8
  ret void
}